target datalayout = "e-m:e-p270:32:32-p271:32:32-p272:64:64-i64:64-i128:128-f80:128-n8:16:32:64-S128"
target triple = "x86_64-pc-linux-gnu"

%"class.cv::Size_" = type { i32, i32 }
%"class.cv::Mat" = type { i32, i32, i32, i32, ptr, ptr, ptr, ptr, ptr, ptr, %"struct.cv::MatSize", %"struct.cv::MatStep" }
%"struct.cv::MatSize" = type { ptr }
%"struct.cv::MatStep" = type { ptr, [2 x i64] }

; Function Attrs: inlinehint mustprogress nounwind uwtable
define linkonce_odr hidden void @_ZN2cv5Size_IiEC2Eii(ptr noundef nonnull align 4 dereferenceable(8) %0, i32 noundef %1, i32 noundef %2) unnamed_addr #4 comdat align 2 {
  %4 = alloca ptr, align 8
  %5 = alloca i32, align 4
  %6 = alloca i32, align 4
  store ptr %0, ptr %4, align 8, !tbaa !77
  store i32 %1, ptr %5, align 4, !tbaa !11
  store i32 %2, ptr %6, align 4, !tbaa !11
  %7 = load ptr, ptr %4, align 8
  %8 = getelementptr inbounds nuw %"class.cv::Size_", ptr %7, i32 0, i32 0
  %9 = load i32, ptr %5, align 4, !tbaa !11
  store i32 %9, ptr %8, align 4, !tbaa !79
  %10 = getelementptr inbounds nuw %"class.cv::Size_", ptr %7, i32 0, i32 1
  %11 = load i32, ptr %6, align 4, !tbaa !11
  store i32 %11, ptr %10, align 4, !tbaa !81
  ret void
}

; Function Attrs: inlinehint mustprogress nounwind uwtable
define linkonce_odr hidden noundef i32 @_ZNK2cv3Mat5depthEv(ptr noundef nonnull align 8 dereferenceable(96) %0) #4 comdat align 2 {
  %2 = alloca ptr, align 8
  store ptr %0, ptr %2, align 8, !tbaa !8
  %3 = load ptr, ptr %2, align 8
  %4 = getelementptr inbounds nuw %"class.cv::Mat", ptr %3, i32 0, i32 0
  %5 = load i32, ptr %4, align 8, !tbaa !52
  %6 = and i32 %5, 7
  ret i32 %6
}

; Function Attrs: inlinehint mustprogress nounwind uwtable
define linkonce_odr hidden noundef i32 @_ZNK2cv3Mat4typeEv(ptr noundef nonnull align 8 dereferenceable(96) %0) #4 comdat align 2 {
  %2 = alloca ptr, align 8
  store ptr %0, ptr %2, align 8, !tbaa !8
  %3 = load ptr, ptr %2, align 8
  %4 = getelementptr inbounds nuw %"class.cv::Mat", ptr %3, i32 0, i32 0
  %5 = load i32, ptr %4, align 8, !tbaa !52
  %6 = and i32 %5, 4095
  ret i32 %6
}

; Function Attrs: inlinehint mustprogress uwtable
define linkonce_odr hidden i64 @_ZNK2cv7MatSizeclEv(ptr noundef nonnull align 8 dereferenceable(8) %0) #2 comdat align 2 {
  %2 = alloca %"class.cv::Size_", align 4
  %3 = alloca ptr, align 8
  store ptr %0, ptr %3, align 8, !tbaa !13
  %4 = load ptr, ptr %3, align 8
  %5 = getelementptr inbounds nuw %"struct.cv::MatSize", ptr %4, i32 0, i32 0
  %6 = load ptr, ptr %5, align 8, !tbaa !15
  %7 = getelementptr inbounds i32, ptr %6, i64 1
  %8 = load i32, ptr %7, align 4, !tbaa !11
  %9 = getelementptr inbounds nuw %"struct.cv::MatSize", ptr %4, i32 0, i32 0
  %10 = load ptr, ptr %9, align 8, !tbaa !15
  %11 = getelementptr inbounds i32, ptr %10, i64 0
  %12 = load i32, ptr %11, align 4, !tbaa !11
  call void @_ZN2cv5Size_IiEC2Eii(ptr noundef nonnull align 4 dereferenceable(8) %2, i32 noundef %8, i32 noundef %12)
  %13 = load i64, ptr %2, align 4
  ret i64 %13
}

; Function Attrs: mustprogress uwtable
define void @_ZNK2cv3reg6Mapper4gridERKNS_3MatERS2_S5_(ptr noundef nonnull align 8 dereferenceable(8) %0, ptr noundef nonnull align 8 dereferenceable(96) %1, ptr noundef nonnull align 8 dereferenceable(96) %2, ptr noundef nonnull align 8 dereferenceable(96) %3) #0 align 2 personality ptr @__gxx_personality_v0 {
  %5 = alloca ptr, align 8
  %6 = alloca ptr, align 8
  %7 = alloca ptr, align 8
  %8 = alloca ptr, align 8
  %9 = alloca %"class.cv::Size_", align 4
  %10 = alloca %"class.cv::Size_", align 4
  %11 = alloca %"class.cv::Mat", align 8
  %12 = alloca %"class.cv::Mat", align 8
  %13 = alloca ptr, align 8
  %14 = alloca i32, align 4
  %15 = alloca %"class.cv::Mat", align 8
  %16 = alloca %"class.cv::Mat", align 8
  %17 = alloca %"class.cv::Mat", align 8
  %18 = alloca %"class.cv::Mat", align 8
  %19 = alloca %"class.cv::Mat", align 8
  %20 = alloca %"class.cv::Mat", align 8
  %21 = alloca %"class.cv::Mat", align 8
  %22 = alloca %"class.cv::Mat", align 8
  %23 = alloca %"class.cv::Mat", align 8
  %24 = alloca %"class.cv::Mat", align 8
  store ptr %0, ptr %5, align 8, !tbaa !3
  store ptr %1, ptr %6, align 8, !tbaa !8
  store ptr %2, ptr %7, align 8, !tbaa !8
  store ptr %3, ptr %8, align 8, !tbaa !8
  %25 = load ptr, ptr %7, align 8, !tbaa !8
  %26 = load ptr, ptr %6, align 8, !tbaa !8
  %27 = getelementptr inbounds nuw %"class.cv::Mat", ptr %26, i32 0, i32 10
  %28 = call i64 @_ZNK2cv7MatSizeclEv(ptr noundef nonnull align 8 dereferenceable(8) %27)
  store i64 %28, ptr %9, align 4
  %29 = load ptr, ptr %6, align 8, !tbaa !8
  %30 = call noundef i32 @_ZNK2cv3Mat4typeEv(ptr noundef nonnull align 8 dereferenceable(96) %29)
  %31 = load i64, ptr %9, align 4
  call void @_ZN2cv3Mat6createENS_5Size_IiEEi(ptr noundef nonnull align 8 dereferenceable(96) %25, i64 %31, i32 noundef %30)
  %32 = load ptr, ptr %8, align 8, !tbaa !8
  %33 = load ptr, ptr %6, align 8, !tbaa !8
  %34 = getelementptr inbounds nuw %"class.cv::Mat", ptr %33, i32 0, i32 10
  %35 = call i64 @_ZNK2cv7MatSizeclEv(ptr noundef nonnull align 8 dereferenceable(8) %34)
  store i64 %35, ptr %10, align 4
  %36 = load ptr, ptr %6, align 8, !tbaa !8
  %37 = call noundef i32 @_ZNK2cv3Mat4typeEv(ptr noundef nonnull align 8 dereferenceable(96) %36)
  %38 = load i64, ptr %10, align 4
  call void @_ZN2cv3Mat6createENS_5Size_IiEEi(ptr noundef nonnull align 8 dereferenceable(96) %32, i64 %38, i32 noundef %37)
  %39 = load ptr, ptr %6, align 8, !tbaa !8
  %40 = call noundef i32 @_ZNK2cv3Mat5depthEv(ptr noundef nonnull align 8 dereferenceable(96) %39)
  %41 = icmp eq i32 %40, 0
  br i1 %41, label %42, label %63

42:                                               ; preds = %4
  %43 = load ptr, ptr %6, align 8, !tbaa !8
  call void @_ZN2cv3MatC1ERKS0_(ptr noundef nonnull align 8 dereferenceable(96) %11, ptr noundef nonnull align 8 dereferenceable(96) %43)
  %44 = load ptr, ptr %7, align 8, !tbaa !8
  invoke void @_ZN2cv3MatC1ERKS0_(ptr noundef nonnull align 8 dereferenceable(96) %12, ptr noundef nonnull align 8 dereferenceable(96) %44)
          to label %45 unwind label %49

45:                                               ; preds = %42
  %46 = load ptr, ptr %8, align 8, !tbaa !8
  invoke void @_ZN2cv3MatC1ERKS0_(ptr noundef nonnull align 8 dereferenceable(96) %15, ptr noundef nonnull align 8 dereferenceable(96) %46)
          to label %47 unwind label %53

47:                                               ; preds = %45
  invoke void @_ZN2cv3reg16fillGridMatricesIhEEvNS_3MatES2_S2_(ptr noundef %11, ptr noundef %12, ptr noundef %15)
          to label %48 unwind label %57

48:                                               ; preds = %47
  call void @_ZN2cv3MatD1Ev(ptr noundef nonnull align 8 dereferenceable(96) %15) #12
  call void @_ZN2cv3MatD1Ev(ptr noundef nonnull align 8 dereferenceable(96) %12) #12
  call void @_ZN2cv3MatD1Ev(ptr noundef nonnull align 8 dereferenceable(96) %11) #12
  br label %63

49:                                               ; preds = %42
  %50 = landingpad { ptr, i32 }
          cleanup
  %51 = extractvalue { ptr, i32 } %50, 0
  store ptr %51, ptr %13, align 8
  %52 = extractvalue { ptr, i32 } %50, 1
  store i32 %52, ptr %14, align 4
  br label %62

53:                                               ; preds = %45
  %54 = landingpad { ptr, i32 }
          cleanup
  %55 = extractvalue { ptr, i32 } %54, 0
  store ptr %55, ptr %13, align 8
  %56 = extractvalue { ptr, i32 } %54, 1
  store i32 %56, ptr %14, align 4
  br label %61

57:                                               ; preds = %47
  %58 = landingpad { ptr, i32 }
          cleanup
  %59 = extractvalue { ptr, i32 } %58, 0
  store ptr %59, ptr %13, align 8
  %60 = extractvalue { ptr, i32 } %58, 1
  store i32 %60, ptr %14, align 4
  call void @_ZN2cv3MatD1Ev(ptr noundef nonnull align 8 dereferenceable(96) %15) #12
  br label %61

61:                                               ; preds = %57, %53
  call void @_ZN2cv3MatD1Ev(ptr noundef nonnull align 8 dereferenceable(96) %12) #12
  br label %62

62:                                               ; preds = %61, %49
  call void @_ZN2cv3MatD1Ev(ptr noundef nonnull align 8 dereferenceable(96) %11) #12
  br label %141

63:                                               ; preds = %48, %4
  %64 = load ptr, ptr %6, align 8, !tbaa !8
  %65 = call noundef i32 @_ZNK2cv3Mat5depthEv(ptr noundef nonnull align 8 dereferenceable(96) %64)
  %66 = icmp eq i32 %65, 2
  br i1 %66, label %67, label %88

67:                                               ; preds = %63
  %68 = load ptr, ptr %6, align 8, !tbaa !8
  call void @_ZN2cv3MatC1ERKS0_(ptr noundef nonnull align 8 dereferenceable(96) %16, ptr noundef nonnull align 8 dereferenceable(96) %68)
  %69 = load ptr, ptr %7, align 8, !tbaa !8
  invoke void @_ZN2cv3MatC1ERKS0_(ptr noundef nonnull align 8 dereferenceable(96) %17, ptr noundef nonnull align 8 dereferenceable(96) %69)
          to label %70 unwind label %74

70:                                               ; preds = %67
  %71 = load ptr, ptr %8, align 8, !tbaa !8
  invoke void @_ZN2cv3MatC1ERKS0_(ptr noundef nonnull align 8 dereferenceable(96) %18, ptr noundef nonnull align 8 dereferenceable(96) %71)
          to label %72 unwind label %78

72:                                               ; preds = %70
  invoke void @_ZN2cv3reg16fillGridMatricesItEEvNS_3MatES2_S2_(ptr noundef %16, ptr noundef %17, ptr noundef %18)
          to label %73 unwind label %82

73:                                               ; preds = %72
  call void @_ZN2cv3MatD1Ev(ptr noundef nonnull align 8 dereferenceable(96) %18) #12
  call void @_ZN2cv3MatD1Ev(ptr noundef nonnull align 8 dereferenceable(96) %17) #12
  call void @_ZN2cv3MatD1Ev(ptr noundef nonnull align 8 dereferenceable(96) %16) #12
  br label %140

74:                                               ; preds = %67
  %75 = landingpad { ptr, i32 }
          cleanup
  %76 = extractvalue { ptr, i32 } %75, 0
  store ptr %76, ptr %13, align 8
  %77 = extractvalue { ptr, i32 } %75, 1
  store i32 %77, ptr %14, align 4
  br label %87

78:                                               ; preds = %70
  %79 = landingpad { ptr, i32 }
          cleanup
  %80 = extractvalue { ptr, i32 } %79, 0
  store ptr %80, ptr %13, align 8
  %81 = extractvalue { ptr, i32 } %79, 1
  store i32 %81, ptr %14, align 4
  br label %86

82:                                               ; preds = %72
  %83 = landingpad { ptr, i32 }
          cleanup
  %84 = extractvalue { ptr, i32 } %83, 0
  store ptr %84, ptr %13, align 8
  %85 = extractvalue { ptr, i32 } %83, 1
  store i32 %85, ptr %14, align 4
  call void @_ZN2cv3MatD1Ev(ptr noundef nonnull align 8 dereferenceable(96) %18) #12
  br label %86

86:                                               ; preds = %82, %78
  call void @_ZN2cv3MatD1Ev(ptr noundef nonnull align 8 dereferenceable(96) %17) #12
  br label %87

87:                                               ; preds = %86, %74
  call void @_ZN2cv3MatD1Ev(ptr noundef nonnull align 8 dereferenceable(96) %16) #12
  br label %141

88:                                               ; preds = %63
  %89 = load ptr, ptr %6, align 8, !tbaa !8
  %90 = call noundef i32 @_ZNK2cv3Mat5depthEv(ptr noundef nonnull align 8 dereferenceable(96) %89)
  %91 = icmp eq i32 %90, 5
  br i1 %91, label %92, label %113

92:                                               ; preds = %88
  %93 = load ptr, ptr %6, align 8, !tbaa !8
  call void @_ZN2cv3MatC1ERKS0_(ptr noundef nonnull align 8 dereferenceable(96) %19, ptr noundef nonnull align 8 dereferenceable(96) %93)
  %94 = load ptr, ptr %7, align 8, !tbaa !8
  invoke void @_ZN2cv3MatC1ERKS0_(ptr noundef nonnull align 8 dereferenceable(96) %20, ptr noundef nonnull align 8 dereferenceable(96) %94)
          to label %95 unwind label %99

95:                                               ; preds = %92
  %96 = load ptr, ptr %8, align 8, !tbaa !8
  invoke void @_ZN2cv3MatC1ERKS0_(ptr noundef nonnull align 8 dereferenceable(96) %21, ptr noundef nonnull align 8 dereferenceable(96) %96)
          to label %97 unwind label %103

97:                                               ; preds = %95
  invoke void @_ZN2cv3reg16fillGridMatricesIfEEvNS_3MatES2_S2_(ptr noundef %19, ptr noundef %20, ptr noundef %21)
          to label %98 unwind label %107

98:                                               ; preds = %97
  call void @_ZN2cv3MatD1Ev(ptr noundef nonnull align 8 dereferenceable(96) %21) #12
  call void @_ZN2cv3MatD1Ev(ptr noundef nonnull align 8 dereferenceable(96) %20) #12
  call void @_ZN2cv3MatD1Ev(ptr noundef nonnull align 8 dereferenceable(96) %19) #12
  br label %139

99:                                               ; preds = %92
  %100 = landingpad { ptr, i32 }
          cleanup
  %101 = extractvalue { ptr, i32 } %100, 0
  store ptr %101, ptr %13, align 8
  %102 = extractvalue { ptr, i32 } %100, 1
  store i32 %102, ptr %14, align 4
  br label %112

103:                                              ; preds = %95
  %104 = landingpad { ptr, i32 }
          cleanup
  %105 = extractvalue { ptr, i32 } %104, 0
  store ptr %105, ptr %13, align 8
  %106 = extractvalue { ptr, i32 } %104, 1
  store i32 %106, ptr %14, align 4
  br label %111

107:                                              ; preds = %97
  %108 = landingpad { ptr, i32 }
          cleanup
  %109 = extractvalue { ptr, i32 } %108, 0
  store ptr %109, ptr %13, align 8
  %110 = extractvalue { ptr, i32 } %108, 1
  store i32 %110, ptr %14, align 4
  call void @_ZN2cv3MatD1Ev(ptr noundef nonnull align 8 dereferenceable(96) %21) #12
  br label %111

111:                                              ; preds = %107, %103
  call void @_ZN2cv3MatD1Ev(ptr noundef nonnull align 8 dereferenceable(96) %20) #12
  br label %112

112:                                              ; preds = %111, %99
  call void @_ZN2cv3MatD1Ev(ptr noundef nonnull align 8 dereferenceable(96) %19) #12
  br label %141

113:                                              ; preds = %88
  %114 = load ptr, ptr %6, align 8, !tbaa !8
  %115 = call noundef i32 @_ZNK2cv3Mat5depthEv(ptr noundef nonnull align 8 dereferenceable(96) %114)
  %116 = icmp eq i32 %115, 6
  br i1 %116, label %117, label %138

117:                                              ; preds = %113
  %118 = load ptr, ptr %6, align 8, !tbaa !8
  call void @_ZN2cv3MatC1ERKS0_(ptr noundef nonnull align 8 dereferenceable(96) %22, ptr noundef nonnull align 8 dereferenceable(96) %118)
  %119 = load ptr, ptr %7, align 8, !tbaa !8
  invoke void @_ZN2cv3MatC1ERKS0_(ptr noundef nonnull align 8 dereferenceable(96) %23, ptr noundef nonnull align 8 dereferenceable(96) %119)
          to label %120 unwind label %124

120:                                              ; preds = %117
  %121 = load ptr, ptr %8, align 8, !tbaa !8
  invoke void @_ZN2cv3MatC1ERKS0_(ptr noundef nonnull align 8 dereferenceable(96) %24, ptr noundef nonnull align 8 dereferenceable(96) %121)
          to label %122 unwind label %128

122:                                              ; preds = %120
  invoke void @_ZN2cv3reg16fillGridMatricesIdEEvNS_3MatES2_S2_(ptr noundef %22, ptr noundef %23, ptr noundef %24)
          to label %123 unwind label %132

123:                                              ; preds = %122
  call void @_ZN2cv3MatD1Ev(ptr noundef nonnull align 8 dereferenceable(96) %24) #12
  call void @_ZN2cv3MatD1Ev(ptr noundef nonnull align 8 dereferenceable(96) %23) #12
  call void @_ZN2cv3MatD1Ev(ptr noundef nonnull align 8 dereferenceable(96) %22) #12
  br label %138

124:                                              ; preds = %117
  %125 = landingpad { ptr, i32 }
          cleanup
  %126 = extractvalue { ptr, i32 } %125, 0
  store ptr %126, ptr %13, align 8
  %127 = extractvalue { ptr, i32 } %125, 1
  store i32 %127, ptr %14, align 4
  br label %137

128:                                              ; preds = %120
  %129 = landingpad { ptr, i32 }
          cleanup
  %130 = extractvalue { ptr, i32 } %129, 0
  store ptr %130, ptr %13, align 8
  %131 = extractvalue { ptr, i32 } %129, 1
  store i32 %131, ptr %14, align 4
  br label %136

132:                                              ; preds = %122
  %133 = landingpad { ptr, i32 }
          cleanup
  %134 = extractvalue { ptr, i32 } %133, 0
  store ptr %134, ptr %13, align 8
  %135 = extractvalue { ptr, i32 } %133, 1
  store i32 %135, ptr %14, align 4
  call void @_ZN2cv3MatD1Ev(ptr noundef nonnull align 8 dereferenceable(96) %24) #12
  br label %136

136:                                              ; preds = %132, %128
  call void @_ZN2cv3MatD1Ev(ptr noundef nonnull align 8 dereferenceable(96) %23) #12
  br label %137

137:                                              ; preds = %136, %124
  call void @_ZN2cv3MatD1Ev(ptr noundef nonnull align 8 dereferenceable(96) %22) #12
  br label %141

138:                                              ; preds = %123, %113
  br label %139

139:                                              ; preds = %138, %98
  br label %140

140:                                              ; preds = %139, %73
  ret void

141:                                              ; preds = %137, %112, %87, %62
  %142 = load ptr, ptr %13, align 8
  %143 = load i32, ptr %14, align 4
  %144 = insertvalue { ptr, i32 } poison, ptr %142, 0
  %145 = insertvalue { ptr, i32 } %144, i32 %143, 1
  resume { ptr, i32 } %145
}