; Function Attrs: mustprogress uwtable
define void @_ZNK2cv3reg6Mapper4gridERKNS_3MatERS2_S5_(ptr noundef nonnull readnone align 8 captures(none) dereferenceable(8) %0, ptr noundef nonnull align 8 dereferenceable(96) %1, ptr noundef nonnull align 8 dereferenceable(96) %2, ptr noundef nonnull align 8 dereferenceable(96) %3) local_unnamed_addr #0 align 2 personality ptr @__gxx_personality_v0 {
  %5 = alloca %"class.cv::Mat", align 8
  %6 = alloca %"class.cv::Mat", align 8
  %7 = alloca %"class.cv::Mat", align 8
  %8 = alloca %"class.cv::Mat", align 8
  %9 = alloca %"class.cv::Mat", align 8
  %10 = alloca %"class.cv::Mat", align 8
  %11 = alloca %"class.cv::Mat", align 8
  %12 = alloca %"class.cv::Mat", align 8
  %13 = alloca %"class.cv::Mat", align 8
  %14 = alloca %"class.cv::Mat", align 8
  %15 = alloca %"class.cv::Mat", align 8
  %16 = alloca %"class.cv::Mat", align 8
  %17 = getelementptr inbounds nuw i8, ptr %1, i64 64
  %18 = load ptr, ptr %17, align 8, !tbaa !3
  %19 = getelementptr inbounds nuw i8, ptr %18, i64 4
  %20 = load i32, ptr %19, align 4, !tbaa !9
  %21 = load i32, ptr %18, align 4, !tbaa !9
  %.sroa.2.0.insert.ext.i = zext i32 %21 to i64
  %.sroa.2.0.insert.shift.i = shl nuw i64 %.sroa.2.0.insert.ext.i, 32
  %.sroa.0.0.insert.ext.i = zext i32 %20 to i64
  %.sroa.0.0.insert.insert.i = or disjoint i64 %.sroa.2.0.insert.shift.i, %.sroa.0.0.insert.ext.i
  %22 = load i32, ptr %1, align 8, !tbaa !28
  %23 = and i32 %22, 4095
  tail call void @_ZN2cv3Mat6createENS_5Size_IiEEi(ptr noundef nonnull align 8 dereferenceable(96) %2, i64 %.sroa.0.0.insert.insert.i, i32 noundef %23)
  %24 = load ptr, ptr %17, align 8, !tbaa !3
  %25 = getelementptr inbounds nuw i8, ptr %24, i64 4
  %26 = load i32, ptr %25, align 4, !tbaa !9
  %27 = load i32, ptr %24, align 4, !tbaa !9
  %.sroa.2.0.insert.ext.i45 = zext i32 %27 to i64
  %.sroa.2.0.insert.shift.i46 = shl nuw i64 %.sroa.2.0.insert.ext.i45, 32
  %.sroa.0.0.insert.ext.i47 = zext i32 %26 to i64
  %.sroa.0.0.insert.insert.i48 = or disjoint i64 %.sroa.2.0.insert.shift.i46, %.sroa.0.0.insert.ext.i47
  %28 = load i32, ptr %1, align 8, !tbaa !28
  %29 = and i32 %28, 4095
  tail call void @_ZN2cv3Mat6createENS_5Size_IiEEi(ptr noundef nonnull align 8 dereferenceable(96) %3, i64 %.sroa.0.0.insert.insert.i48, i32 noundef %29)
  %30 = load i32, ptr %1, align 8, !tbaa !28
  %31 = and i32 %30, 7
  %32 = icmp eq i32 %31, 0
  br i1 %32, label %33, label %44

33:                                               ; preds = %4
  call void @_ZN2cv3MatC1ERKS0_(ptr noundef nonnull align 8 dereferenceable(96) %5, ptr noundef nonnull align 8 dereferenceable(96) %1)
  invoke void @_ZN2cv3MatC1ERKS0_(ptr noundef nonnull align 8 dereferenceable(96) %6, ptr noundef nonnull align 8 dereferenceable(96) %2)
          to label %34 unwind label %37

34:                                               ; preds = %33
  invoke void @_ZN2cv3MatC1ERKS0_(ptr noundef nonnull align 8 dereferenceable(96) %7, ptr noundef nonnull align 8 dereferenceable(96) %3)
          to label %35 unwind label %39

35:                                               ; preds = %34
  invoke void @_ZN2cv3reg16fillGridMatricesIhEEvNS_3MatES2_S2_(ptr noundef nonnull %5, ptr noundef nonnull %6, ptr noundef nonnull %7)
          to label %36 unwind label %41

36:                                               ; preds = %35
  call void @_ZN2cv3MatD1Ev(ptr noundef nonnull align 8 dereferenceable(96) %7) #13
  call void @_ZN2cv3MatD1Ev(ptr noundef nonnull align 8 dereferenceable(96) %6) #13
  call void @_ZN2cv3MatD1Ev(ptr noundef nonnull align 8 dereferenceable(96) %5) #13
  %.pre = load i32, ptr %1, align 8, !tbaa !28
  br label %44

37:                                               ; preds = %33
  %38 = landingpad { ptr, i32 }
          cleanup
  br label %78

39:                                               ; preds = %34
  %40 = landingpad { ptr, i32 }
          cleanup
  br label %43

41:                                               ; preds = %35
  %42 = landingpad { ptr, i32 }
          cleanup
  call void @_ZN2cv3MatD1Ev(ptr noundef nonnull align 8 dereferenceable(96) %7) #13
  br label %43

43:                                               ; preds = %41, %39
  %.pn = phi { ptr, i32 } [ %42, %41 ], [ %40, %39 ]
  call void @_ZN2cv3MatD1Ev(ptr noundef nonnull align 8 dereferenceable(96) %6) #13
  br label %78

44:                                               ; preds = %36, %4
  %45 = phi i32 [ %.pre, %36 ], [ %30, %4 ]
  %46 = and i32 %45, 7
  switch i32 %46, label %77 [
    i32 2, label %47
    i32 5, label %57
    i32 6, label %67
  ]

47:                                               ; preds = %44
  call void @_ZN2cv3MatC1ERKS0_(ptr noundef nonnull align 8 dereferenceable(96) %8, ptr noundef nonnull align 8 dereferenceable(96) %1)
  invoke void @_ZN2cv3MatC1ERKS0_(ptr noundef nonnull align 8 dereferenceable(96) %9, ptr noundef nonnull align 8 dereferenceable(96) %2)
          to label %48 unwind label %50

48:                                               ; preds = %47
  invoke void @_ZN2cv3MatC1ERKS0_(ptr noundef nonnull align 8 dereferenceable(96) %10, ptr noundef nonnull align 8 dereferenceable(96) %3)
          to label %49 unwind label %52

49:                                               ; preds = %48
  invoke void @_ZN2cv3reg16fillGridMatricesItEEvNS_3MatES2_S2_(ptr noundef nonnull %8, ptr noundef nonnull %9, ptr noundef nonnull %10)
          to label %.sink.split unwind label %54

50:                                               ; preds = %47
  %51 = landingpad { ptr, i32 }
          cleanup
  br label %78

52:                                               ; preds = %48
  %53 = landingpad { ptr, i32 }
          cleanup
  br label %56

54:                                               ; preds = %49
  %55 = landingpad { ptr, i32 }
          cleanup
  call void @_ZN2cv3MatD1Ev(ptr noundef nonnull align 8 dereferenceable(96) %10) #13
  br label %56

56:                                               ; preds = %54, %52
  %.pn41 = phi { ptr, i32 } [ %55, %54 ], [ %53, %52 ]
  call void @_ZN2cv3MatD1Ev(ptr noundef nonnull align 8 dereferenceable(96) %9) #13
  br label %78

57:                                               ; preds = %44
  call void @_ZN2cv3MatC1ERKS0_(ptr noundef nonnull align 8 dereferenceable(96) %11, ptr noundef nonnull align 8 dereferenceable(96) %1)
  invoke void @_ZN2cv3MatC1ERKS0_(ptr noundef nonnull align 8 dereferenceable(96) %12, ptr noundef nonnull align 8 dereferenceable(96) %2)
          to label %58 unwind label %60

58:                                               ; preds = %57
  invoke void @_ZN2cv3MatC1ERKS0_(ptr noundef nonnull align 8 dereferenceable(96) %13, ptr noundef nonnull align 8 dereferenceable(96) %3)
          to label %59 unwind label %62

59:                                               ; preds = %58
  invoke void @_ZN2cv3reg16fillGridMatricesIfEEvNS_3MatES2_S2_(ptr noundef nonnull %11, ptr noundef nonnull %12, ptr noundef nonnull %13)
          to label %.sink.split unwind label %64

60:                                               ; preds = %57
  %61 = landingpad { ptr, i32 }
          cleanup
  br label %78

62:                                               ; preds = %58
  %63 = landingpad { ptr, i32 }
          cleanup
  br label %66

64:                                               ; preds = %59
  %65 = landingpad { ptr, i32 }
          cleanup
  call void @_ZN2cv3MatD1Ev(ptr noundef nonnull align 8 dereferenceable(96) %13) #13
  br label %66

66:                                               ; preds = %64, %62
  %.pn38 = phi { ptr, i32 } [ %65, %64 ], [ %63, %62 ]
  call void @_ZN2cv3MatD1Ev(ptr noundef nonnull align 8 dereferenceable(96) %12) #13
  br label %78

67:                                               ; preds = %44
  call void @_ZN2cv3MatC1ERKS0_(ptr noundef nonnull align 8 dereferenceable(96) %14, ptr noundef nonnull align 8 dereferenceable(96) %1)
  invoke void @_ZN2cv3MatC1ERKS0_(ptr noundef nonnull align 8 dereferenceable(96) %15, ptr noundef nonnull align 8 dereferenceable(96) %2)
          to label %68 unwind label %70

68:                                               ; preds = %67
  invoke void @_ZN2cv3MatC1ERKS0_(ptr noundef nonnull align 8 dereferenceable(96) %16, ptr noundef nonnull align 8 dereferenceable(96) %3)
          to label %69 unwind label %72

69:                                               ; preds = %68
  invoke void @_ZN2cv3reg16fillGridMatricesIdEEvNS_3MatES2_S2_(ptr noundef nonnull %14, ptr noundef nonnull %15, ptr noundef nonnull %16)
          to label %.sink.split unwind label %74

70:                                               ; preds = %67
  %71 = landingpad { ptr, i32 }
          cleanup
  br label %78

72:                                               ; preds = %68
  %73 = landingpad { ptr, i32 }
          cleanup
  br label %76

74:                                               ; preds = %69
  %75 = landingpad { ptr, i32 }
          cleanup
  call void @_ZN2cv3MatD1Ev(ptr noundef nonnull align 8 dereferenceable(96) %16) #13
  br label %76

76:                                               ; preds = %74, %72
  %.pn35 = phi { ptr, i32 } [ %75, %74 ], [ %73, %72 ]
  call void @_ZN2cv3MatD1Ev(ptr noundef nonnull align 8 dereferenceable(96) %15) #13
  br label %78

.sink.split:                                      ; preds = %69, %59, %49
  %.sink50 = phi ptr [ %10, %49 ], [ %13, %59 ], [ %16, %69 ]
  %.sink49 = phi ptr [ %9, %49 ], [ %12, %59 ], [ %15, %69 ]
  %.sink = phi ptr [ %8, %49 ], [ %11, %59 ], [ %14, %69 ]
  call void @_ZN2cv3MatD1Ev(ptr noundef nonnull align 8 dereferenceable(96) %.sink50) #13
  call void @_ZN2cv3MatD1Ev(ptr noundef nonnull align 8 dereferenceable(96) %.sink49) #13
  call void @_ZN2cv3MatD1Ev(ptr noundef nonnull align 8 dereferenceable(96) %.sink) #13
  br label %77

77:                                               ; preds = %.sink.split, %44
  ret void

78:                                               ; preds = %70, %76, %60, %66, %50, %56, %37, %43
  %.sink51 = phi ptr [ %5, %43 ], [ %5, %37 ], [ %8, %56 ], [ %8, %50 ], [ %11, %66 ], [ %11, %60 ], [ %14, %76 ], [ %14, %70 ]
  %.pn41.pn.pn = phi { ptr, i32 } [ %.pn, %43 ], [ %38, %37 ], [ %.pn41, %56 ], [ %51, %50 ], [ %.pn38, %66 ], [ %61, %60 ], [ %.pn35, %76 ], [ %71, %70 ]
  call void @_ZN2cv3MatD1Ev(ptr noundef nonnull align 8 dereferenceable(96) %.sink51) #13
  resume { ptr, i32 } %.pn41.pn.pn
}